; Function Attrs: mustprogress uwtable
define noundef zeroext i1 @_ZNK10FloatValueeqERK5Value(ptr nocapture noundef nonnull readonly align 8 dereferenceable(12) %0, ptr noundef nonnull align 8 dereferenceable(8) %1) unnamed_addr #2 align 2 {
  %3 = load ptr, ptr %1, align 8
  %4 = getelementptr inbounds i8, ptr %3, i64 96
  %5 = load ptr, ptr %4, align 8
  %6 = tail call noundef zeroext i1 %5(ptr noundef nonnull align 8 dereferenceable(8) %1)
  br i1 %6, label %7, label %15

7:                                                ; preds = %2
  %8 = getelementptr inbounds i8, ptr %0, i64 8
  %9 = load float, ptr %8, align 8
  %10 = load ptr, ptr %1, align 8
  %11 = getelementptr inbounds i8, ptr %10, i64 32
  %12 = load ptr, ptr %11, align 8
  %13 = tail call noundef float %12(ptr noundef nonnull align 8 dereferenceable(8) %1)
  %14 = fcmp oeq float %9, %13
  br label %15

15:                                               ; preds = %2, %7
  %.0 = phi i1 [ %14, %7 ], [ false, %2 ]
  ret i1 %.0
}